target datalayout = "e-m:e-p270:32:32-p271:32:32-p272:64:64-i64:64-i128:128-f80:128-n8:16:32:64-S128"
target triple = "x86_64-pc-linux-gnu"

%struct.http_context_t = type { i32, ptr, ptr, ptr, ptr, ptr }
%struct.request_t = type { i32, ptr, ptr, ptr, ptr, i32, i8, i32, ptr, ptr, i64, i64, ptr, ptr, ptr }

@.str.14 = private unnamed_addr constant [7 x i8] c"http.c\00", align 1
@__func__.setup_http_context = private unnamed_addr constant [19 x i8] c"setup_http_context\00", align 1
@__func__._http_context_new = private unnamed_addr constant [18 x i8] c"_http_context_new\00", align 1

; Function Attrs: nounwind uwtable
define internal ptr @_http_context_new() #0 {
  %1 = alloca ptr, align 8
  %2 = alloca ptr, align 8
  call void @llvm.lifetime.start.p0(i64 8, ptr %1) #8
  %3 = call ptr @slurm_xcalloc(i64 noundef 1, i64 noundef 48, i1 noundef zeroext true, i1 noundef zeroext false, ptr noundef @.str.14, i32 noundef 886, ptr noundef @__func__._http_context_new)
  store ptr %3, ptr %1, align 8
  call void @llvm.lifetime.start.p0(i64 8, ptr %2) #8
  %4 = call ptr @slurm_xcalloc(i64 noundef 1, i64 noundef 32, i1 noundef zeroext true, i1 noundef zeroext false, ptr noundef @.str.14, i32 noundef 887, ptr noundef @__func__._http_context_new)
  store ptr %4, ptr %2, align 8
  %5 = load ptr, ptr %1, align 8
  %6 = getelementptr inbounds nuw %struct.http_context_t, ptr %5, i32 0, i32 0
  store i32 -542114065, ptr %6, align 8
  %7 = load ptr, ptr %2, align 8
  call void @http_parser_init(ptr noundef %7, i32 noundef 0)
  %8 = load ptr, ptr %2, align 8
  %9 = load ptr, ptr %1, align 8
  %10 = getelementptr inbounds nuw %struct.http_context_t, ptr %9, i32 0, i32 4
  store ptr %8, ptr %10, align 8
  %11 = load ptr, ptr %1, align 8
  %12 = getelementptr inbounds nuw %struct.http_context_t, ptr %11, i32 0, i32 2
  store ptr null, ptr %12, align 8
  %13 = load ptr, ptr %1, align 8
  call void @llvm.lifetime.end.p0(i64 8, ptr %2) #8
  call void @llvm.lifetime.end.p0(i64 8, ptr %1) #8
  ret ptr %13
}

; Function Attrs: nounwind uwtable
define dso_local ptr @setup_http_context(ptr noundef %0, ptr noundef %1) #0 {
  %3 = alloca ptr, align 8
  %4 = alloca ptr, align 8
  %5 = alloca ptr, align 8
  %6 = alloca ptr, align 8
  store ptr %0, ptr %3, align 8
  store ptr %1, ptr %4, align 8
  call void @llvm.lifetime.start.p0(i64 8, ptr %5) #8
  %7 = call ptr @_http_context_new()
  store ptr %7, ptr %5, align 8
  call void @llvm.lifetime.start.p0(i64 8, ptr %6) #8
  %8 = call ptr @slurm_xcalloc(i64 noundef 1, i64 noundef 112, i1 noundef zeroext true, i1 noundef zeroext false, ptr noundef @.str.14, i32 noundef 934, ptr noundef @__func__.setup_http_context)
  store ptr %8, ptr %6, align 8
  %9 = load ptr, ptr %6, align 8
  %10 = getelementptr inbounds nuw %struct.request_t, ptr %9, i32 0, i32 0
  store i32 -609375569, ptr %10, align 8
  %11 = load ptr, ptr %3, align 8
  %12 = load ptr, ptr %5, align 8
  %13 = getelementptr inbounds nuw %struct.http_context_t, ptr %12, i32 0, i32 1
  store ptr %11, ptr %13, align 8
  %14 = load ptr, ptr %4, align 8
  %15 = load ptr, ptr %5, align 8
  %16 = getelementptr inbounds nuw %struct.http_context_t, ptr %15, i32 0, i32 3
  store ptr %14, ptr %16, align 8
  %17 = load ptr, ptr %6, align 8
  %18 = load ptr, ptr %5, align 8
  %19 = getelementptr inbounds nuw %struct.http_context_t, ptr %18, i32 0, i32 5
  store ptr %17, ptr %19, align 8
  %20 = call ptr @list_create(ptr noundef @_free_http_header)
  %21 = load ptr, ptr %6, align 8
  %22 = getelementptr inbounds nuw %struct.request_t, ptr %21, i32 0, i32 3
  store ptr %20, ptr %22, align 8
  %23 = load ptr, ptr %5, align 8
  call void @llvm.lifetime.end.p0(i64 8, ptr %6) #8
  call void @llvm.lifetime.end.p0(i64 8, ptr %5) #8
  ret ptr %23
}