; Function Attrs: nounwind uwtable
define dso_local ptr @setup_http_context(ptr noundef %0, ptr noundef %1) local_unnamed_addr #0 {
  %3 = tail call ptr @slurm_xcalloc(i64 noundef 1, i64 noundef 48, i1 noundef zeroext true, i1 noundef zeroext false, ptr noundef nonnull @.str.14, i32 noundef 886, ptr noundef nonnull @__func__._http_context_new) #8
  %4 = tail call ptr @slurm_xcalloc(i64 noundef 1, i64 noundef 32, i1 noundef zeroext true, i1 noundef zeroext false, ptr noundef nonnull @.str.14, i32 noundef 887, ptr noundef nonnull @__func__._http_context_new) #8
  store i32 -542114065, ptr %3, align 8
  tail call void @http_parser_init(ptr noundef %4, i32 noundef 0) #8
  %5 = getelementptr inbounds nuw i8, ptr %3, i64 32
  store ptr %4, ptr %5, align 8
  %6 = getelementptr inbounds nuw i8, ptr %3, i64 16
  store ptr null, ptr %6, align 8
  %7 = tail call ptr @slurm_xcalloc(i64 noundef 1, i64 noundef 112, i1 noundef zeroext true, i1 noundef zeroext false, ptr noundef nonnull @.str.14, i32 noundef 934, ptr noundef nonnull @__func__.setup_http_context) #8
  store i32 -609375569, ptr %7, align 8
  %8 = getelementptr inbounds nuw i8, ptr %3, i64 8
  store ptr %0, ptr %8, align 8
  %9 = getelementptr inbounds nuw i8, ptr %3, i64 24
  store ptr %1, ptr %9, align 8
  %10 = getelementptr inbounds nuw i8, ptr %3, i64 40
  store ptr %7, ptr %10, align 8
  %11 = tail call ptr @list_create(ptr noundef nonnull @_free_http_header) #8
  %12 = getelementptr inbounds nuw i8, ptr %7, i64 24
  store ptr %11, ptr %12, align 8
  ret ptr %3
}